; ModuleID = 'source-C-CXX/61/1397.c'
source_filename = "source-C-CXX/61/1397.c"
target datalayout = "e-m:e-p270:32:32-p271:32:32-p272:64:64-i64:64-f80:128-n8:16:32:64-S128"
target triple = "x86_64-pc-linux-gnu"

; Function Attrs: nounwind sspstrong uwtable
define dso_local i32 @main() local_unnamed_addr #0 {
  %1 = alloca [10000 x i8], align 16
  %2 = getelementptr inbounds [10000 x i8], [10000 x i8]* %1, i64 0, i64 0
  call void @llvm.lifetime.start.p0i8(i64 10000, i8* nonnull %2) #5
  %3 = call i32 (i8*, ...) bitcast (i32 (...)* @gets to i32 (i8*, ...)*)(i8* nonnull %2) #5
  %4 = load i8, i8* %2, align 16
  %5 = icmp eq i8 %4, 0
  br i1 %5, label %32, label %6

6:                                                ; preds = %0, %30
  %7 = phi i8 [ %31, %30 ], [ %4, %0 ]
  %8 = phi i64 [ %27, %30 ], [ 0, %0 ]
  %9 = phi i32 [ %25, %30 ], [ 0, %0 ]
  %10 = phi i8* [ %26, %30 ], [ %2, %0 ]
  %11 = icmp eq i8 %7, 32
  br i1 %11, label %16, label %12

12:                                               ; preds = %6
  %13 = sext i8 %7 to i32
  %14 = call i32 @putchar(i32 %13)
  %15 = load i8, i8* %10, align 1, !tbaa !5
  br label %16

16:                                               ; preds = %12, %6
  %17 = phi i8 [ %15, %12 ], [ 32, %6 ]
  %18 = phi i32 [ 0, %12 ], [ %9, %6 ]
  %19 = icmp eq i8 %17, 32
  %20 = icmp eq i32 %18, 0
  %21 = select i1 %19, i1 %20, i1 false
  br i1 %21, label %22, label %24

22:                                               ; preds = %16
  %23 = call i32 @putchar(i32 32)
  br label %24

24:                                               ; preds = %22, %16
  %25 = phi i32 [ 1, %22 ], [ %18, %16 ]
  %26 = getelementptr inbounds i8, i8* %10, i64 1
  %27 = add nuw i64 %8, 1
  %28 = call i64 @strlen(i8* noundef nonnull %2) #6
  %29 = icmp ugt i64 %28, %27
  br i1 %29, label %30, label %32, !llvm.loop !8

30:                                               ; preds = %24
  %31 = load i8, i8* %26, align 1, !tbaa !5
  br label %6

32:                                               ; preds = %24, %0
  call void @llvm.lifetime.end.p0i8(i64 10000, i8* nonnull %2) #5
  ret i32 0
}

; Function Attrs: argmemonly mustprogress nofree nosync nounwind willreturn
declare void @llvm.lifetime.start.p0i8(i64 immarg, i8* nocapture) #1

declare i32 @gets(...) local_unnamed_addr #2

; Function Attrs: argmemonly mustprogress nofree nounwind readonly willreturn
declare i64 @strlen(i8* nocapture) local_unnamed_addr #3

; Function Attrs: argmemonly mustprogress nofree nosync nounwind willreturn
declare void @llvm.lifetime.end.p0i8(i64 immarg, i8* nocapture) #1

; Function Attrs: nofree nounwind
declare noundef i32 @putchar(i32 noundef) local_unnamed_addr #4


!llvm.module.flags = !{!0, !1, !2, !3}
!llvm.ident = !{!4}

!0 = !{i32 1, !"wchar_size", i32 4}
!1 = !{i32 7, !"PIC Level", i32 2}
!2 = !{i32 7, !"PIE Level", i32 2}
!3 = !{i32 7, !"uwtable", i32 1}
!4 = !{!"clang version 13.0.0"}
!5 = !{!6, !6, i64 0}
!6 = !{!"omnipotent char", !7, i64 0}
!7 = !{!"Simple C/C++ TBAA"}
!8 = distinct !{!8, !9}
!9 = !{!"llvm.loop.mustprogress"}
